; Function Attrs: nounwind uwtable
define internal void @_ZThn8_ZN6hermes2vm6GCBase20sizeDiagnosticCensusEmEN26HeapSizeDiagnosticAcceptorD0Ev(ptr noundef %this) unnamed_addr #19 align 2 {
entry:
  %0 = getelementptr inbounds i8, ptr %this, i64 -8
  %1 = getelementptr inbounds i8, ptr %this, i64 120
  %this.val.i.i.i.i.i.i = load ptr, ptr %1, align 8
  tail call fastcc void @_ZNSt8_Rb_treeINSt7__cxx1112basic_stringIcSt11char_traitsIcESaIcEEESt4pairIKS5_ZN6hermes2vm6GCBase20sizeDiagnosticCensusEmE14DiagnosticStatESt10_Select1stISC_ESt4lessIS5_ESaISC_EE8_M_eraseEPSt13_Rb_tree_nodeISC_E(ptr noundef %this.val.i.i.i.i.i.i)
  tail call void @_ZdlPv(ptr noundef nonnull %0) #30
  ret void
}